target datalayout = "e-m:e-p270:32:32-p271:32:32-p272:64:64-i64:64-i128:128-f80:128-n8:16:32:64-S128"
target triple = "x86_64-pc-linux-gnu"

%struct.mspack_system = type { ptr, ptr, ptr, ptr, ptr, ptr, ptr, ptr, ptr, ptr, ptr }
%struct.mschm_decompressor_p = type { %struct.mschm_decompressor, ptr, ptr, i32 }
%struct.mschm_decompressor = type { ptr, ptr, ptr, ptr, ptr, ptr }
%struct.mschmd_header = type { i32, i32, i32, ptr, i64, ptr, ptr, %struct.mschmd_sec_uncompressed, %struct.mschmd_sec_mscompressed, i64, i32, i32, i32, i32, i32, i32, i32, ptr }
%struct.mschmd_sec_uncompressed = type { %struct.mschmd_section, i64 }
%struct.mschmd_section = type { ptr, i32 }
%struct.mschmd_sec_mscompressed = type { %struct.mschmd_section, ptr, ptr, ptr, ptr }
%struct.mschmd_file = type { ptr, ptr, i64, i64, ptr }
%struct.mschmd_decompress_state = type { ptr, i64, i64, i64, ptr, %struct.mspack_system, ptr, ptr }

; Function Attrs: nounwind uwtable
define internal void @chmd_close(ptr noundef %0, ptr noundef %1) #0 {
  %3 = alloca ptr, align 8
  %4 = alloca ptr, align 8
  %5 = alloca ptr, align 8
  %6 = alloca ptr, align 8
  %7 = alloca ptr, align 8
  %8 = alloca ptr, align 8
  %9 = alloca i32, align 4
  store ptr %0, ptr %3, align 8
  store ptr %1, ptr %4, align 8
  %10 = load ptr, ptr %3, align 8
  store ptr %10, ptr %5, align 8
  %11 = load ptr, ptr %3, align 8
  %12 = icmp ne ptr %11, null
  br i1 %12, label %14, label %13

13:                                               ; preds = %2
  br label %142

14:                                               ; preds = %2
  %15 = load ptr, ptr %5, align 8
  %16 = getelementptr inbounds %struct.mschm_decompressor_p, ptr %15, i32 0, i32 1
  %17 = load ptr, ptr %16, align 8
  store ptr %17, ptr %8, align 8
  %18 = load ptr, ptr %5, align 8
  %19 = getelementptr inbounds %struct.mschm_decompressor_p, ptr %18, i32 0, i32 3
  store i32 0, ptr %19, align 8
  %20 = load ptr, ptr %4, align 8
  %21 = getelementptr inbounds %struct.mschmd_header, ptr %20, i32 0, i32 5
  %22 = load ptr, ptr %21, align 8
  store ptr %22, ptr %6, align 8
  br label %23

23:                                               ; preds = %34, %14
  %24 = load ptr, ptr %6, align 8
  %25 = icmp ne ptr %24, null
  br i1 %25, label %26, label %36

26:                                               ; preds = %23
  %27 = load ptr, ptr %6, align 8
  %28 = getelementptr inbounds %struct.mschmd_file, ptr %27, i32 0, i32 0
  %29 = load ptr, ptr %28, align 8
  store ptr %29, ptr %7, align 8
  %30 = load ptr, ptr %8, align 8
  %31 = getelementptr inbounds %struct.mspack_system, ptr %30, i32 0, i32 8
  %32 = load ptr, ptr %31, align 8
  %33 = load ptr, ptr %6, align 8
  call void %32(ptr noundef %33)
  br label %34

34:                                               ; preds = %26
  %35 = load ptr, ptr %7, align 8
  store ptr %35, ptr %6, align 8
  br label %23

36:                                               ; preds = %23
  %37 = load ptr, ptr %4, align 8
  %38 = getelementptr inbounds %struct.mschmd_header, ptr %37, i32 0, i32 6
  %39 = load ptr, ptr %38, align 8
  store ptr %39, ptr %6, align 8
  br label %40

40:                                               ; preds = %51, %36
  %41 = load ptr, ptr %6, align 8
  %42 = icmp ne ptr %41, null
  br i1 %42, label %43, label %53

43:                                               ; preds = %40
  %44 = load ptr, ptr %6, align 8
  %45 = getelementptr inbounds %struct.mschmd_file, ptr %44, i32 0, i32 0
  %46 = load ptr, ptr %45, align 8
  store ptr %46, ptr %7, align 8
  %47 = load ptr, ptr %8, align 8
  %48 = getelementptr inbounds %struct.mspack_system, ptr %47, i32 0, i32 8
  %49 = load ptr, ptr %48, align 8
  %50 = load ptr, ptr %6, align 8
  call void %49(ptr noundef %50)
  br label %51

51:                                               ; preds = %43
  %52 = load ptr, ptr %7, align 8
  store ptr %52, ptr %6, align 8
  br label %40

53:                                               ; preds = %40
  %54 = load ptr, ptr %5, align 8
  %55 = getelementptr inbounds %struct.mschm_decompressor_p, ptr %54, i32 0, i32 2
  %56 = load ptr, ptr %55, align 8
  %57 = icmp ne ptr %56, null
  br i1 %57, label %58, label %104

58:                                               ; preds = %53
  %59 = load ptr, ptr %5, align 8
  %60 = getelementptr inbounds %struct.mschm_decompressor_p, ptr %59, i32 0, i32 2
  %61 = load ptr, ptr %60, align 8
  %62 = getelementptr inbounds %struct.mschmd_decompress_state, ptr %61, i32 0, i32 0
  %63 = load ptr, ptr %62, align 8
  %64 = load ptr, ptr %4, align 8
  %65 = icmp eq ptr %63, %64
  br i1 %65, label %66, label %104

66:                                               ; preds = %58
  %67 = load ptr, ptr %5, align 8
  %68 = getelementptr inbounds %struct.mschm_decompressor_p, ptr %67, i32 0, i32 2
  %69 = load ptr, ptr %68, align 8
  %70 = getelementptr inbounds %struct.mschmd_decompress_state, ptr %69, i32 0, i32 6
  %71 = load ptr, ptr %70, align 8
  %72 = icmp ne ptr %71, null
  br i1 %72, label %73, label %82

73:                                               ; preds = %66
  %74 = load ptr, ptr %8, align 8
  %75 = getelementptr inbounds %struct.mspack_system, ptr %74, i32 0, i32 1
  %76 = load ptr, ptr %75, align 8
  %77 = load ptr, ptr %5, align 8
  %78 = getelementptr inbounds %struct.mschm_decompressor_p, ptr %77, i32 0, i32 2
  %79 = load ptr, ptr %78, align 8
  %80 = getelementptr inbounds %struct.mschmd_decompress_state, ptr %79, i32 0, i32 6
  %81 = load ptr, ptr %80, align 8
  call void %76(ptr noundef %81)
  br label %82

82:                                               ; preds = %73, %66
  %83 = load ptr, ptr %5, align 8
  %84 = getelementptr inbounds %struct.mschm_decompressor_p, ptr %83, i32 0, i32 2
  %85 = load ptr, ptr %84, align 8
  %86 = getelementptr inbounds %struct.mschmd_decompress_state, ptr %85, i32 0, i32 4
  %87 = load ptr, ptr %86, align 8
  %88 = icmp ne ptr %87, null
  br i1 %88, label %89, label %95

89:                                               ; preds = %82
  %90 = load ptr, ptr %5, align 8
  %91 = getelementptr inbounds %struct.mschm_decompressor_p, ptr %90, i32 0, i32 2
  %92 = load ptr, ptr %91, align 8
  %93 = getelementptr inbounds %struct.mschmd_decompress_state, ptr %92, i32 0, i32 4
  %94 = load ptr, ptr %93, align 8
  call void @lzxd_free(ptr noundef %94)
  br label %95

95:                                               ; preds = %89, %82
  %96 = load ptr, ptr %8, align 8
  %97 = getelementptr inbounds %struct.mspack_system, ptr %96, i32 0, i32 8
  %98 = load ptr, ptr %97, align 8
  %99 = load ptr, ptr %5, align 8
  %100 = getelementptr inbounds %struct.mschm_decompressor_p, ptr %99, i32 0, i32 2
  %101 = load ptr, ptr %100, align 8
  call void %98(ptr noundef %101)
  %102 = load ptr, ptr %5, align 8
  %103 = getelementptr inbounds %struct.mschm_decompressor_p, ptr %102, i32 0, i32 2
  store ptr null, ptr %103, align 8
  br label %104

104:                                              ; preds = %95, %58, %53
  %105 = load ptr, ptr %4, align 8
  %106 = getelementptr inbounds %struct.mschmd_header, ptr %105, i32 0, i32 17
  %107 = load ptr, ptr %106, align 8
  %108 = icmp ne ptr %107, null
  br i1 %108, label %109, label %137

109:                                              ; preds = %104
  store i32 0, ptr %9, align 4
  br label %110

110:                                              ; preds = %127, %109
  %111 = load i32, ptr %9, align 4
  %112 = load ptr, ptr %4, align 8
  %113 = getelementptr inbounds %struct.mschmd_header, ptr %112, i32 0, i32 10
  %114 = load i32, ptr %113, align 8
  %115 = icmp ult i32 %111, %114
  br i1 %115, label %116, label %130

116:                                              ; preds = %110
  %117 = load ptr, ptr %8, align 8
  %118 = getelementptr inbounds %struct.mspack_system, ptr %117, i32 0, i32 8
  %119 = load ptr, ptr %118, align 8
  %120 = load ptr, ptr %4, align 8
  %121 = getelementptr inbounds %struct.mschmd_header, ptr %120, i32 0, i32 17
  %122 = load ptr, ptr %121, align 8
  %123 = load i32, ptr %9, align 4
  %124 = zext i32 %123 to i64
  %125 = getelementptr inbounds ptr, ptr %122, i64 %124
  %126 = load ptr, ptr %125, align 8
  call void %119(ptr noundef %126)
  br label %127

127:                                              ; preds = %116
  %128 = load i32, ptr %9, align 4
  %129 = add i32 %128, 1
  store i32 %129, ptr %9, align 4
  br label %110

130:                                              ; preds = %110
  %131 = load ptr, ptr %8, align 8
  %132 = getelementptr inbounds %struct.mspack_system, ptr %131, i32 0, i32 8
  %133 = load ptr, ptr %132, align 8
  %134 = load ptr, ptr %4, align 8
  %135 = getelementptr inbounds %struct.mschmd_header, ptr %134, i32 0, i32 17
  %136 = load ptr, ptr %135, align 8
  call void %133(ptr noundef %136)
  br label %137

137:                                              ; preds = %130, %104
  %138 = load ptr, ptr %8, align 8
  %139 = getelementptr inbounds %struct.mspack_system, ptr %138, i32 0, i32 8
  %140 = load ptr, ptr %139, align 8
  %141 = load ptr, ptr %4, align 8
  call void %140(ptr noundef %141)
  br label %142

142:                                              ; preds = %137, %13
  ret void
}