; Function Attrs: nounwind uwtable
define internal void @chmd_close(ptr noundef %0, ptr noundef %1) #0 {
  %.not = icmp eq ptr %0, null
  br i1 %.not, label %59, label %3

3:                                                ; preds = %2
  %4 = getelementptr inbounds i8, ptr %0, i64 48
  %5 = load ptr, ptr %4, align 8
  %6 = getelementptr inbounds i8, ptr %0, i64 64
  store i32 0, ptr %6, align 8
  %7 = getelementptr inbounds i8, ptr %1, i64 32
  %8 = load ptr, ptr %7, align 8
  %.not4248 = icmp eq ptr %8, null
  br i1 %.not4248, label %._crit_edge, label %.lr.ph

.lr.ph:                                           ; preds = %3
  %9 = getelementptr inbounds i8, ptr %5, i64 64
  br label %10

10:                                               ; preds = %.lr.ph, %10
  %.03749 = phi ptr [ %8, %.lr.ph ], [ %11, %10 ]
  %11 = load ptr, ptr %.03749, align 8
  %12 = load ptr, ptr %9, align 8
  tail call void %12(ptr noundef nonnull %.03749) #12
  %.not42 = icmp eq ptr %11, null
  br i1 %.not42, label %._crit_edge, label %10

._crit_edge:                                      ; preds = %10, %3
  %13 = getelementptr inbounds i8, ptr %1, i64 40
  %14 = load ptr, ptr %13, align 8
  %.not4350 = icmp eq ptr %14, null
  br i1 %.not4350, label %._crit_edge54, label %.lr.ph53

.lr.ph53:                                         ; preds = %._crit_edge
  %15 = getelementptr inbounds i8, ptr %5, i64 64
  br label %16

16:                                               ; preds = %.lr.ph53, %16
  %.151 = phi ptr [ %14, %.lr.ph53 ], [ %17, %16 ]
  %17 = load ptr, ptr %.151, align 8
  %18 = load ptr, ptr %15, align 8
  tail call void %18(ptr noundef nonnull %.151) #12
  %.not43 = icmp eq ptr %17, null
  br i1 %.not43, label %._crit_edge54, label %16

._crit_edge54:                                    ; preds = %16, %._crit_edge
  %19 = getelementptr inbounds i8, ptr %0, i64 56
  %20 = load ptr, ptr %19, align 8
  %.not44 = icmp eq ptr %20, null
  br i1 %.not44, label %39, label %21

21:                                               ; preds = %._crit_edge54
  %22 = load ptr, ptr %20, align 8
  %23 = icmp eq ptr %22, %1
  br i1 %23, label %24, label %39

24:                                               ; preds = %21
  %25 = getelementptr inbounds i8, ptr %20, i64 128
  %26 = load ptr, ptr %25, align 8
  %.not45 = icmp eq ptr %26, null
  br i1 %.not45, label %30, label %27

27:                                               ; preds = %24
  %28 = getelementptr inbounds i8, ptr %5, i64 8
  %29 = load ptr, ptr %28, align 8
  tail call void %29(ptr noundef nonnull %26) #12
  %.pre = load ptr, ptr %19, align 8
  br label %30

30:                                               ; preds = %27, %24
  %31 = phi ptr [ %.pre, %27 ], [ %20, %24 ]
  %32 = getelementptr inbounds i8, ptr %31, i64 32
  %33 = load ptr, ptr %32, align 8
  %.not46 = icmp eq ptr %33, null
  br i1 %.not46, label %35, label %34

34:                                               ; preds = %30
  tail call void @lzxd_free(ptr noundef nonnull %33) #12
  %.pre60 = load ptr, ptr %19, align 8
  br label %35

35:                                               ; preds = %34, %30
  %36 = phi ptr [ %.pre60, %34 ], [ %31, %30 ]
  %37 = getelementptr inbounds i8, ptr %5, i64 64
  %38 = load ptr, ptr %37, align 8
  tail call void %38(ptr noundef %36) #12
  store ptr null, ptr %19, align 8
  br label %39

39:                                               ; preds = %35, %21, %._crit_edge54
  %40 = getelementptr inbounds i8, ptr %1, i64 160
  %41 = load ptr, ptr %40, align 8
  %.not47 = icmp eq ptr %41, null
  br i1 %.not47, label %56, label %.preheader

.preheader:                                       ; preds = %39
  %42 = getelementptr inbounds i8, ptr %1, i64 128
  %43 = load i32, ptr %42, align 8
  %.not58 = icmp eq i32 %43, 0
  br i1 %.not58, label %._crit_edge57, label %.lr.ph56

.lr.ph56:                                         ; preds = %.preheader
  %44 = getelementptr inbounds i8, ptr %5, i64 64
  br label %45

45:                                               ; preds = %.lr.ph56, %45
  %indvars.iv = phi i64 [ 0, %.lr.ph56 ], [ %indvars.iv.next, %45 ]
  %46 = load ptr, ptr %44, align 8
  %47 = load ptr, ptr %40, align 8
  %48 = getelementptr inbounds ptr, ptr %47, i64 %indvars.iv
  %49 = load ptr, ptr %48, align 8
  tail call void %46(ptr noundef %49) #12
  %indvars.iv.next = add nuw nsw i64 %indvars.iv, 1
  %50 = load i32, ptr %42, align 8
  %51 = zext i32 %50 to i64
  %52 = icmp ult i64 %indvars.iv.next, %51
  br i1 %52, label %45, label %._crit_edge57.loopexit

._crit_edge57.loopexit:                           ; preds = %45
  %.pre61 = load ptr, ptr %40, align 8
  br label %._crit_edge57

._crit_edge57:                                    ; preds = %._crit_edge57.loopexit, %.preheader
  %53 = phi ptr [ %.pre61, %._crit_edge57.loopexit ], [ %41, %.preheader ]
  %54 = getelementptr inbounds i8, ptr %5, i64 64
  %55 = load ptr, ptr %54, align 8
  tail call void %55(ptr noundef %53) #12
  br label %56

56:                                               ; preds = %._crit_edge57, %39
  %57 = getelementptr inbounds i8, ptr %5, i64 64
  %58 = load ptr, ptr %57, align 8
  tail call void %58(ptr noundef nonnull %1) #12
  br label %59

59:                                               ; preds = %2, %56
  ret void
}